target datalayout = "e-m:e-p270:32:32-p271:32:32-p272:64:64-i64:64-i128:128-f80:128-n8:16:32:64-S128"
target triple = "x86_64-pc-linux-gnu"

@.str.1 = private unnamed_addr constant [6 x i8] c"acl.c\00", align 1
@.str.48 = private unnamed_addr constant [20 x i8] c"identifier too long\00", align 1
@.str.49 = private unnamed_addr constant [44 x i8] c"Identifier must be less than %d characters.\00", align 1
@__func__.getid = private unnamed_addr constant [6 x i8] c"getid\00", align 1

; Function Attrs: nounwind uwtable
define internal ptr @getid(ptr noundef %0, ptr noundef %1, ptr noundef %2) #0 {
  %4 = alloca ptr, align 8
  %5 = alloca ptr, align 8
  %6 = alloca ptr, align 8
  %7 = alloca ptr, align 8
  %8 = alloca i32, align 4
  %9 = alloca i8, align 1
  %10 = alloca ptr, align 8
  %11 = alloca i32, align 4
  store ptr %0, ptr %5, align 8
  store ptr %1, ptr %6, align 8
  store ptr %2, ptr %7, align 8
  call void @llvm.lifetime.start.p0(i64 4, ptr %8) #9
  store i32 0, ptr %8, align 4
  call void @llvm.lifetime.start.p0(i64 1, ptr %9) #9
  store i8 0, ptr %9, align 1
  br label %12

12:                                               ; preds = %24, %3
  %13 = call ptr @__ctype_b_loc() #12
  %14 = load ptr, ptr %13, align 8
  %15 = load ptr, ptr %5, align 8
  %16 = load i8, ptr %15, align 1
  %17 = zext i8 %16 to i32
  %18 = sext i32 %17 to i64
  %19 = getelementptr inbounds i16, ptr %14, i64 %18
  %20 = load i16, ptr %19, align 2
  %21 = zext i16 %20 to i32
  %22 = and i32 %21, 8192
  %23 = icmp ne i32 %22, 0
  br i1 %23, label %24, label %27

24:                                               ; preds = %12
  %25 = load ptr, ptr %5, align 8
  %26 = getelementptr inbounds nuw i8, ptr %25, i32 1
  store ptr %26, ptr %5, align 8
  br label %12, !llvm.loop !35

27:                                               ; preds = %12
  br label %28

28:                                               ; preds = %108, %27
  %29 = load ptr, ptr %5, align 8
  %30 = load i8, ptr %29, align 1
  %31 = sext i8 %30 to i32
  %32 = icmp ne i32 %31, 0
  br i1 %32, label %33, label %60

33:                                               ; preds = %28
  %34 = call ptr @__ctype_b_loc() #12
  %35 = load ptr, ptr %34, align 8
  %36 = load ptr, ptr %5, align 8
  %37 = load i8, ptr %36, align 1
  %38 = zext i8 %37 to i32
  %39 = sext i32 %38 to i64
  %40 = getelementptr inbounds i16, ptr %35, i64 %39
  %41 = load i16, ptr %40, align 2
  %42 = zext i16 %41 to i32
  %43 = and i32 %42, 8
  %44 = icmp ne i32 %43, 0
  br i1 %44, label %58, label %45

45:                                               ; preds = %33
  %46 = load ptr, ptr %5, align 8
  %47 = load i8, ptr %46, align 1
  %48 = sext i8 %47 to i32
  %49 = icmp eq i32 %48, 95
  br i1 %49, label %58, label %50

50:                                               ; preds = %45
  %51 = load ptr, ptr %5, align 8
  %52 = load i8, ptr %51, align 1
  %53 = sext i8 %52 to i32
  %54 = icmp eq i32 %53, 34
  br i1 %54, label %58, label %55

55:                                               ; preds = %50
  %56 = load i8, ptr %9, align 1, !range !12, !noundef !13
  %57 = trunc i8 %56 to i1
  br label %58

58:                                               ; preds = %55, %50, %45, %33
  %59 = phi i1 [ true, %50 ], [ true, %45 ], [ true, %33 ], [ %57, %55 ]
  br label %60

60:                                               ; preds = %58, %28
  %61 = phi i1 [ false, %28 ], [ %59, %58 ]
  br i1 %61, label %62, label %111

62:                                               ; preds = %60
  %63 = load ptr, ptr %5, align 8
  %64 = load i8, ptr %63, align 1
  %65 = sext i8 %64 to i32
  %66 = icmp eq i32 %65, 34
  br i1 %66, label %67, label %81

67:                                               ; preds = %62
  %68 = load ptr, ptr %5, align 8
  %69 = getelementptr inbounds i8, ptr %68, i64 1
  %70 = load i8, ptr %69, align 1
  %71 = sext i8 %70 to i32
  %72 = icmp ne i32 %71, 34
  br i1 %72, label %73, label %78

73:                                               ; preds = %67
  %74 = load i8, ptr %9, align 1, !range !12, !noundef !13
  %75 = trunc i8 %74 to i1
  %76 = xor i1 %75, true
  %77 = zext i1 %76 to i8
  store i8 %77, ptr %9, align 1
  br label %108

78:                                               ; preds = %67
  %79 = load ptr, ptr %5, align 8
  %80 = getelementptr inbounds nuw i8, ptr %79, i32 1
  store ptr %80, ptr %5, align 8
  br label %81

81:                                               ; preds = %78, %62
  %82 = load i32, ptr %8, align 4
  %83 = icmp sge i32 %82, 63
  br i1 %83, label %84, label %100

84:                                               ; preds = %81
  br label %85

85:                                               ; preds = %84
  br label %86

86:                                               ; preds = %85
  call void @llvm.lifetime.start.p0(i64 8, ptr %10) #9
  %87 = load ptr, ptr %7, align 8
  store ptr %87, ptr %10, align 8
  %88 = load ptr, ptr %10, align 8
  %89 = call zeroext i1 @errsave_start(ptr noundef %88, ptr noundef null)
  br i1 %89, label %90, label %95

90:                                               ; preds = %86
  %91 = call i32 @errcode(i32 noundef 34103428)
  %92 = call i32 (ptr, ...) @errmsg(ptr noundef @.str.48)
  %93 = call i32 (ptr, ...) @errdetail(ptr noundef @.str.49, i32 noundef 64)
  %94 = load ptr, ptr %10, align 8
  call void @errsave_finish(ptr noundef %94, ptr noundef @.str.1, i32 noundef 189, ptr noundef @__func__.getid)
  br label %95

95:                                               ; preds = %90, %86
  call void @llvm.lifetime.end.p0(i64 8, ptr %10) #9
  br label %96

96:                                               ; preds = %95
  br label %97

97:                                               ; preds = %96
  store ptr null, ptr %4, align 8
  store i32 1, ptr %11, align 4
  br label %133

98:                                               ; No predecessors!
  br label %99

99:                                               ; preds = %98
  br label %100

100:                                              ; preds = %99, %81
  %101 = load ptr, ptr %5, align 8
  %102 = load i8, ptr %101, align 1
  %103 = load ptr, ptr %6, align 8
  %104 = load i32, ptr %8, align 4
  %105 = add i32 %104, 1
  store i32 %105, ptr %8, align 4
  %106 = sext i32 %104 to i64
  %107 = getelementptr inbounds i8, ptr %103, i64 %106
  store i8 %102, ptr %107, align 1
  br label %108

108:                                              ; preds = %100, %73
  %109 = load ptr, ptr %5, align 8
  %110 = getelementptr inbounds nuw i8, ptr %109, i32 1
  store ptr %110, ptr %5, align 8
  br label %28, !llvm.loop !36

111:                                              ; preds = %60
  %112 = load ptr, ptr %6, align 8
  %113 = load i32, ptr %8, align 4
  %114 = sext i32 %113 to i64
  %115 = getelementptr inbounds i8, ptr %112, i64 %114
  store i8 0, ptr %115, align 1
  br label %116

116:                                              ; preds = %128, %111
  %117 = call ptr @__ctype_b_loc() #12
  %118 = load ptr, ptr %117, align 8
  %119 = load ptr, ptr %5, align 8
  %120 = load i8, ptr %119, align 1
  %121 = zext i8 %120 to i32
  %122 = sext i32 %121 to i64
  %123 = getelementptr inbounds i16, ptr %118, i64 %122
  %124 = load i16, ptr %123, align 2
  %125 = zext i16 %124 to i32
  %126 = and i32 %125, 8192
  %127 = icmp ne i32 %126, 0
  br i1 %127, label %128, label %131

128:                                              ; preds = %116
  %129 = load ptr, ptr %5, align 8
  %130 = getelementptr inbounds nuw i8, ptr %129, i32 1
  store ptr %130, ptr %5, align 8
  br label %116, !llvm.loop !37

131:                                              ; preds = %116
  %132 = load ptr, ptr %5, align 8
  store ptr %132, ptr %4, align 8
  store i32 1, ptr %11, align 4
  br label %133

133:                                              ; preds = %131, %97
  call void @llvm.lifetime.end.p0(i64 1, ptr %9) #9
  call void @llvm.lifetime.end.p0(i64 4, ptr %8) #9
  %134 = load ptr, ptr %4, align 8
  ret ptr %134
}