; Function Attrs: nounwind uwtable
define internal fastcc noundef ptr @getid(ptr noundef readonly captures(ret: address, provenance) %0, ptr noundef nonnull writeonly captures(none) %1, ptr noundef %2) unnamed_addr #0 {
  %4 = tail call ptr @__ctype_b_loc() #16
  %5 = load ptr, ptr %4, align 8
  br label %6

6:                                                ; preds = %6, %3
  %.029 = phi ptr [ %0, %3 ], [ %12, %6 ]
  %7 = load i8, ptr %.029, align 1
  %8 = zext i8 %7 to i64
  %9 = getelementptr inbounds nuw i16, ptr %5, i64 %8
  %10 = load i16, ptr %9, align 2
  %11 = and i16 %10, 8192
  %.not = icmp eq i16 %11, 0
  %12 = getelementptr inbounds nuw i8, ptr %.029, i64 1
  br i1 %.not, label %.preheader, label %6, !llvm.loop !33

.preheader:                                       ; preds = %6
  %.not3240 = icmp eq i8 %7, 0
  br i1 %.not3240, label %.critedge, label %.lr.ph

.lr.ph:                                           ; preds = %.preheader, %38
  %13 = phi i8 [ %39, %38 ], [ %7, %.preheader ]
  %.02645 = phi i1 [ %.1, %38 ], [ false, %.preheader ]
  %.02742 = phi i32 [ %.128, %38 ], [ 0, %.preheader ]
  %.13041 = phi ptr [ %40, %38 ], [ %.029, %.preheader ]
  %14 = load ptr, ptr %4, align 8
  %15 = zext i8 %13 to i64
  %16 = getelementptr inbounds nuw i16, ptr %14, i64 %15
  %17 = load i16, ptr %16, align 2
  %.fr37 = freeze i16 %17
  %18 = and i16 %.fr37, 8
  %.not33.not = icmp eq i16 %18, 0
  br i1 %.not33.not, label %switch.early.test, label %.critedge2

switch.early.test:                                ; preds = %.lr.ph
  switch i8 %13, label %19 [
    i8 34, label %21
    i8 95, label %26
  ]

19:                                               ; preds = %switch.early.test
  br i1 %.02645, label %.critedge2, label %.critedge.loopexit

.critedge2:                                       ; preds = %.lr.ph, %19
  %20 = icmp eq i8 %13, 34
  br i1 %20, label %21, label %26

21:                                               ; preds = %switch.early.test, %.critedge2
  %22 = getelementptr inbounds nuw i8, ptr %.13041, i64 1
  %23 = load i8, ptr %22, align 1
  %.not35 = icmp eq i8 %23, 34
  br i1 %.not35, label %26, label %24

24:                                               ; preds = %21
  %25 = xor i1 %.02645, true
  br label %38

26:                                               ; preds = %switch.early.test, %21, %.critedge2
  %.2 = phi ptr [ %.13041, %.critedge2 ], [ %22, %21 ], [ %.13041, %switch.early.test ]
  %27 = icmp sgt i32 %.02742, 62
  br i1 %27, label %28, label %34

28:                                               ; preds = %26
  %29 = tail call zeroext i1 @errsave_start(ptr noundef %2, ptr noundef null) #14
  br i1 %29, label %30, label %.loopexit

30:                                               ; preds = %28
  %31 = tail call i32 @errcode(i32 noundef 34103428) #14
  %32 = tail call i32 (ptr, ...) @errmsg(ptr noundef nonnull @.str.48) #14
  %33 = tail call i32 (ptr, ...) @errdetail(ptr noundef nonnull @.str.49, i32 noundef 64) #14
  tail call void @errsave_finish(ptr noundef %2, ptr noundef nonnull @.str.1, i32 noundef 189, ptr noundef nonnull @__func__.getid) #14
  br label %.loopexit

34:                                               ; preds = %26
  %35 = add nsw i32 %.02742, 1
  %36 = sext i32 %.02742 to i64
  %37 = getelementptr inbounds i8, ptr %1, i64 %36
  store i8 %13, ptr %37, align 1
  %.phi.trans.insert = getelementptr inbounds nuw i8, ptr %.2, i64 1
  %.pre = load i8, ptr %.phi.trans.insert, align 1
  br label %38

38:                                               ; preds = %34, %24
  %39 = phi i8 [ %23, %24 ], [ %.pre, %34 ]
  %.3 = phi ptr [ %.13041, %24 ], [ %.2, %34 ]
  %.128 = phi i32 [ %.02742, %24 ], [ %35, %34 ]
  %.1 = phi i1 [ %25, %24 ], [ %.02645, %34 ]
  %40 = getelementptr inbounds nuw i8, ptr %.3, i64 1
  %.not32 = icmp eq i8 %39, 0
  br i1 %.not32, label %.critedge.loopexit, label %.lr.ph, !llvm.loop !34

.critedge.loopexit:                               ; preds = %38, %19
  %.130.lcssa.ph = phi ptr [ %.13041, %19 ], [ %40, %38 ]
  %.027.lcssa.ph = phi i32 [ %.02742, %19 ], [ %.128, %38 ]
  %41 = sext i32 %.027.lcssa.ph to i64
  br label %.critedge

.critedge:                                        ; preds = %.critedge.loopexit, %.preheader
  %.130.lcssa = phi ptr [ %.029, %.preheader ], [ %.130.lcssa.ph, %.critedge.loopexit ]
  %.027.lcssa = phi i64 [ 0, %.preheader ], [ %41, %.critedge.loopexit ]
  %42 = getelementptr inbounds i8, ptr %1, i64 %.027.lcssa
  store i8 0, ptr %42, align 1
  %43 = load ptr, ptr %4, align 8
  br label %44

44:                                               ; preds = %44, %.critedge
  %.4 = phi ptr [ %.130.lcssa, %.critedge ], [ %50, %44 ]
  %45 = load i8, ptr %.4, align 1
  %46 = zext i8 %45 to i64
  %47 = getelementptr inbounds nuw i16, ptr %43, i64 %46
  %48 = load i16, ptr %47, align 2
  %49 = and i16 %48, 8192
  %.not34 = icmp eq i16 %49, 0
  %50 = getelementptr inbounds nuw i8, ptr %.4, i64 1
  br i1 %.not34, label %.loopexit, label %44, !llvm.loop !35

.loopexit:                                        ; preds = %44, %28, %30
  %.0 = phi ptr [ null, %30 ], [ null, %28 ], [ %.4, %44 ]
  ret ptr %.0
}